target datalayout = "e-m:e-p270:32:32-p271:32:32-p272:64:64-i64:64-i128:128-f80:128-n8:16:32:64-S128"
target triple = "x86_64-pc-linux-gnu"

%struct.llama_sampler = type { ptr, ptr }
%struct.llama_token_data = type { i32, float, float }
%struct.llama_token_data_array = type { ptr, i64, i64, i8 }
%struct.llama_sampler_temp = type { float }

; Function Attrs: mustprogress nounwind uwtable
define internal void @_ZL23llama_sampler_temp_implP22llama_token_data_arrayf(ptr noundef %0, float noundef %1) #6 {
  %3 = alloca ptr, align 8
  %4 = alloca float, align 4
  %5 = alloca i64, align 8
  %6 = alloca float, align 4
  %7 = alloca i64, align 8
  %8 = alloca i64, align 8
  store ptr %0, ptr %3, align 8, !tbaa !19
  store float %1, ptr %4, align 4, !tbaa !36
  %9 = load float, ptr %4, align 4, !tbaa !36
  %10 = fcmp ole float %9, 0.000000e+00
  br i1 %10, label %11, label %62

11:                                               ; preds = %2
  call void @llvm.lifetime.start.p0(i64 8, ptr %5) #14
  store i64 0, ptr %5, align 8, !tbaa !51
  call void @llvm.lifetime.start.p0(i64 4, ptr %6) #14
  %12 = load ptr, ptr %3, align 8, !tbaa !19
  %13 = getelementptr inbounds nuw %struct.llama_token_data_array, ptr %12, i32 0, i32 0
  %14 = load ptr, ptr %13, align 8, !tbaa !41
  %15 = getelementptr inbounds %struct.llama_token_data, ptr %14, i64 0
  %16 = getelementptr inbounds nuw %struct.llama_token_data, ptr %15, i32 0, i32 1
  %17 = load float, ptr %16, align 4, !tbaa !37
  store float %17, ptr %6, align 4, !tbaa !36
  call void @llvm.lifetime.start.p0(i64 8, ptr %7) #14
  store i64 1, ptr %7, align 8, !tbaa !51
  br label %18

18:                                               ; preds = %58, %11
  %19 = load i64, ptr %7, align 8, !tbaa !51
  %20 = load ptr, ptr %3, align 8, !tbaa !19
  %21 = getelementptr inbounds nuw %struct.llama_token_data_array, ptr %20, i32 0, i32 1
  %22 = load i64, ptr %21, align 8, !tbaa !46
  %23 = icmp ult i64 %19, %22
  br i1 %23, label %25, label %24

24:                                               ; preds = %18
  call void @llvm.lifetime.end.p0(i64 8, ptr %7) #14
  br label %61

25:                                               ; preds = %18
  %26 = load ptr, ptr %3, align 8, !tbaa !19
  %27 = getelementptr inbounds nuw %struct.llama_token_data_array, ptr %26, i32 0, i32 0
  %28 = load ptr, ptr %27, align 8, !tbaa !41
  %29 = load i64, ptr %7, align 8, !tbaa !51
  %30 = getelementptr inbounds nuw %struct.llama_token_data, ptr %28, i64 %29
  %31 = getelementptr inbounds nuw %struct.llama_token_data, ptr %30, i32 0, i32 1
  %32 = load float, ptr %31, align 4, !tbaa !37
  %33 = load float, ptr %6, align 4, !tbaa !36
  %34 = fcmp ogt float %32, %33
  br i1 %34, label %35, label %50

35:                                               ; preds = %25
  %36 = load ptr, ptr %3, align 8, !tbaa !19
  %37 = getelementptr inbounds nuw %struct.llama_token_data_array, ptr %36, i32 0, i32 0
  %38 = load ptr, ptr %37, align 8, !tbaa !41
  %39 = load i64, ptr %5, align 8, !tbaa !51
  %40 = getelementptr inbounds nuw %struct.llama_token_data, ptr %38, i64 %39
  %41 = getelementptr inbounds nuw %struct.llama_token_data, ptr %40, i32 0, i32 1
  store float 0xFFF0000000000000, ptr %41, align 4, !tbaa !37
  %42 = load i64, ptr %7, align 8, !tbaa !51
  store i64 %42, ptr %5, align 8, !tbaa !51
  %43 = load ptr, ptr %3, align 8, !tbaa !19
  %44 = getelementptr inbounds nuw %struct.llama_token_data_array, ptr %43, i32 0, i32 0
  %45 = load ptr, ptr %44, align 8, !tbaa !41
  %46 = load i64, ptr %7, align 8, !tbaa !51
  %47 = getelementptr inbounds nuw %struct.llama_token_data, ptr %45, i64 %46
  %48 = getelementptr inbounds nuw %struct.llama_token_data, ptr %47, i32 0, i32 1
  %49 = load float, ptr %48, align 4, !tbaa !37
  store float %49, ptr %6, align 4, !tbaa !36
  br label %57

50:                                               ; preds = %25
  %51 = load ptr, ptr %3, align 8, !tbaa !19
  %52 = getelementptr inbounds nuw %struct.llama_token_data_array, ptr %51, i32 0, i32 0
  %53 = load ptr, ptr %52, align 8, !tbaa !41
  %54 = load i64, ptr %7, align 8, !tbaa !51
  %55 = getelementptr inbounds nuw %struct.llama_token_data, ptr %53, i64 %54
  %56 = getelementptr inbounds nuw %struct.llama_token_data, ptr %55, i32 0, i32 1
  store float 0xFFF0000000000000, ptr %56, align 4, !tbaa !37
  br label %57

57:                                               ; preds = %50, %35
  br label %58

58:                                               ; preds = %57
  %59 = load i64, ptr %7, align 8, !tbaa !51
  %60 = add i64 %59, 1
  store i64 %60, ptr %7, align 8, !tbaa !51
  br label %18, !llvm.loop !533

61:                                               ; preds = %24
  call void @llvm.lifetime.end.p0(i64 4, ptr %6) #14
  call void @llvm.lifetime.end.p0(i64 8, ptr %5) #14
  br label %83

62:                                               ; preds = %2
  call void @llvm.lifetime.start.p0(i64 8, ptr %8) #14
  store i64 0, ptr %8, align 8, !tbaa !51
  br label %63

63:                                               ; preds = %80, %62
  %64 = load i64, ptr %8, align 8, !tbaa !51
  %65 = load ptr, ptr %3, align 8, !tbaa !19
  %66 = getelementptr inbounds nuw %struct.llama_token_data_array, ptr %65, i32 0, i32 1
  %67 = load i64, ptr %66, align 8, !tbaa !46
  %68 = icmp ult i64 %64, %67
  br i1 %68, label %70, label %69

69:                                               ; preds = %63
  call void @llvm.lifetime.end.p0(i64 8, ptr %8) #14
  br label %83

70:                                               ; preds = %63
  %71 = load float, ptr %4, align 4, !tbaa !36
  %72 = load ptr, ptr %3, align 8, !tbaa !19
  %73 = getelementptr inbounds nuw %struct.llama_token_data_array, ptr %72, i32 0, i32 0
  %74 = load ptr, ptr %73, align 8, !tbaa !41
  %75 = load i64, ptr %8, align 8, !tbaa !51
  %76 = getelementptr inbounds nuw %struct.llama_token_data, ptr %74, i64 %75
  %77 = getelementptr inbounds nuw %struct.llama_token_data, ptr %76, i32 0, i32 1
  %78 = load float, ptr %77, align 4, !tbaa !37
  %79 = fdiv float %78, %71
  store float %79, ptr %77, align 4, !tbaa !37
  br label %80

80:                                               ; preds = %70
  %81 = load i64, ptr %8, align 8, !tbaa !51
  %82 = add i64 %81, 1
  store i64 %82, ptr %8, align 8, !tbaa !51
  br label %63, !llvm.loop !534

83:                                               ; preds = %61, %69
  ret void
}

; Function Attrs: mustprogress uwtable
define internal void @_ZL24llama_sampler_temp_applyP13llama_samplerP22llama_token_data_array(ptr noundef %0, ptr noundef %1) #0 {
  %3 = alloca ptr, align 8
  %4 = alloca ptr, align 8
  %5 = alloca ptr, align 8
  store ptr %0, ptr %3, align 8, !tbaa !12
  store ptr %1, ptr %4, align 8, !tbaa !19
  call void @llvm.lifetime.start.p0(i64 8, ptr %5) #14
  %6 = load ptr, ptr %3, align 8, !tbaa !12
  %7 = getelementptr inbounds nuw %struct.llama_sampler, ptr %6, i32 0, i32 1
  %8 = load ptr, ptr %7, align 8, !tbaa !11
  store ptr %8, ptr %5, align 8, !tbaa !531
  %9 = load ptr, ptr %4, align 8, !tbaa !19
  %10 = load ptr, ptr %5, align 8, !tbaa !531
  %11 = getelementptr inbounds nuw %struct.llama_sampler_temp, ptr %10, i32 0, i32 0
  %12 = load float, ptr %11, align 4, !tbaa !105
  call void @_ZL23llama_sampler_temp_implP22llama_token_data_arrayf(ptr noundef %9, float noundef %12)
  call void @llvm.lifetime.end.p0(i64 8, ptr %5) #14
  ret void
}