; Function Attrs: mustprogress nofree norecurse nosync nounwind memory(readwrite, inaccessiblemem: none) uwtable
define internal void @_ZL24llama_sampler_temp_applyP13llama_samplerP22llama_token_data_array(ptr noundef readonly captures(none) %0, ptr noundef readonly captures(none) %1) #24 {
  %3 = getelementptr inbounds nuw i8, ptr %0, i64 8
  %4 = load ptr, ptr %3, align 8, !tbaa !9
  %5 = load float, ptr %4, align 4, !tbaa !70
  %6 = fcmp ugt float %5, 0.000000e+00
  br i1 %6, label %.preheader.i, label %10

.preheader.i:                                     ; preds = %2
  %7 = getelementptr inbounds nuw i8, ptr %1, i64 8
  %8 = load i64, ptr %7, align 8, !tbaa !22
  %.not.i = icmp eq i64 %8, 0
  br i1 %.not.i, label %_ZL23llama_sampler_temp_implP22llama_token_data_arrayf.exit, label %.lr.ph30.i

.lr.ph30.i:                                       ; preds = %.preheader.i
  %9 = load ptr, ptr %1, align 8, !tbaa !17
  br label %26

10:                                               ; preds = %2
  %11 = load ptr, ptr %1, align 8, !tbaa !17
  %12 = getelementptr inbounds nuw i8, ptr %1, i64 8
  %13 = load i64, ptr %12, align 8, !tbaa !22
  %14 = icmp ugt i64 %13, 1
  br i1 %14, label %.lr.ph.preheader.i, label %_ZL23llama_sampler_temp_implP22llama_token_data_arrayf.exit

.lr.ph.preheader.i:                               ; preds = %10
  %15 = getelementptr inbounds nuw i8, ptr %11, i64 4
  %16 = load float, ptr %15, align 4, !tbaa !209
  br label %.lr.ph.i

.lr.ph.i:                                         ; preds = %24, %.lr.ph.preheader.i
  %.02028.i = phi i64 [ %25, %24 ], [ 1, %.lr.ph.preheader.i ]
  %.02127.i = phi float [ %.1.i, %24 ], [ %16, %.lr.ph.preheader.i ]
  %.02226.i = phi i64 [ %.123.i, %24 ], [ 0, %.lr.ph.preheader.i ]
  %17 = getelementptr inbounds nuw %struct.llama_token_data, ptr %11, i64 %.02028.i, i32 1
  %18 = load float, ptr %17, align 4, !tbaa !209
  %19 = fcmp ogt float %18, %.02127.i
  br i1 %19, label %20, label %23

20:                                               ; preds = %.lr.ph.i
  %21 = getelementptr inbounds nuw %struct.llama_token_data, ptr %11, i64 %.02226.i, i32 1
  store float 0xFFF0000000000000, ptr %21, align 4, !tbaa !209
  %22 = load float, ptr %17, align 4, !tbaa !209
  br label %24

23:                                               ; preds = %.lr.ph.i
  store float 0xFFF0000000000000, ptr %17, align 4, !tbaa !209
  br label %24

24:                                               ; preds = %23, %20
  %.123.i = phi i64 [ %.02028.i, %20 ], [ %.02226.i, %23 ]
  %.1.i = phi float [ %22, %20 ], [ %.02127.i, %23 ]
  %25 = add nuw i64 %.02028.i, 1
  %exitcond.not.i = icmp eq i64 %25, %13
  br i1 %exitcond.not.i, label %_ZL23llama_sampler_temp_implP22llama_token_data_arrayf.exit, label %.lr.ph.i, !llvm.loop !296

26:                                               ; preds = %26, %.lr.ph30.i
  %.029.i = phi i64 [ 0, %.lr.ph30.i ], [ %30, %26 ]
  %27 = getelementptr inbounds nuw %struct.llama_token_data, ptr %9, i64 %.029.i, i32 1
  %28 = load float, ptr %27, align 4, !tbaa !209
  %29 = fdiv float %28, %5
  store float %29, ptr %27, align 4, !tbaa !209
  %30 = add nuw i64 %.029.i, 1
  %exitcond32.not.i = icmp eq i64 %30, %8
  br i1 %exitcond32.not.i, label %_ZL23llama_sampler_temp_implP22llama_token_data_arrayf.exit, label %26, !llvm.loop !297

_ZL23llama_sampler_temp_implP22llama_token_data_arrayf.exit: ; preds = %24, %26, %.preheader.i, %10
  ret void
}